ccopy_reg
_reconstructor
p0
(csklearn.linear_model.base
LinearRegression
p1
c__builtin__
object
p2
Ntp3
Rp4
(dp5
S'normalize'
p6
I00
sS'n_jobs'
p7
I-1
sS'rank_'
p8
I4
sS'fit_intercept'
p9
I01
sS'_residues'
p10
cnumpy.core.multiarray
scalar
p11
(cnumpy
dtype
p12
(S'f8'
p13
I0
I1
tp14
Rp15
(I3
S'<'
p16
NNNI-1
I-1
I0
tp17
bS'\xf0\xb7\xeay\xee\xb1BA'
p18
tp19
Rp20
sS'coef_'
p21
cnumpy.core.multiarray
_reconstruct
p22
(cnumpy
ndarray
p23
(I0
tp24
S'b'
p25
tp26
Rp27
(I1
(I4
tp28
g15
I00
S"\x99p7\xbc\x97\x96e@\xb6q\xcdM\xdb\xf2\x00\xc0i\xb3m\xa9\x7f\xa9\xf7\xbf\x04';\x1d\xe5\xaa\x0b\xc0"
p29
tp30
bsS'copy_X'
p31
I01
sS'intercept_'
p32
g11
(g15
S'3f\xaeJ\x9fZu@'
p33
tp34
Rp35
sS'singular_'
p36
g22
(g23
(I0
tp37
g25
tp38
Rp39
(I1
(I4
tp40
g15
I00
S'\xb4"\xe0\xf41\xf6P@\x9e\xb7\x9bK^_L@\xdd\xd2\xc8dRm@@\xa6\x9b\xe0\xf7d\xd15@'
p41
tp42
bsb.